; Function Attrs: mustprogress uwtable
define void @_ZN2mu14ParserCallbackC2EPFdPviidddddES1_b(ptr noundef nonnull writeonly align 8 captures(none) dereferenceable(32) initializes((0, 29)) %0, ptr noundef %1, ptr noundef %2, i1 noundef zeroext %3) unnamed_addr #7 align 2 {
  %5 = zext i1 %3 to i8
  %6 = tail call noalias noundef nonnull dereferenceable(16) ptr @_Znwm(i64 noundef 16) #12
  store ptr %1, ptr %6, align 16, !tbaa !20
  %7 = getelementptr inbounds nuw i8, ptr %6, i64 8
  store ptr %2, ptr %7, align 8, !tbaa !22
  store ptr %6, ptr %0, align 8, !tbaa !4
  %8 = getelementptr inbounds nuw i8, ptr %0, i64 8
  store i32 8197, ptr %8, align 8, !tbaa !14
  %9 = getelementptr inbounds nuw i8, ptr %0, i64 12
  store i32 -1, ptr %9, align 4, !tbaa !15
  %10 = getelementptr inbounds nuw i8, ptr %0, i64 16
  store i32 2, ptr %10, align 8, !tbaa !16
  %11 = getelementptr inbounds nuw i8, ptr %0, i64 20
  store i32 28, ptr %11, align 4, !tbaa !17
  %12 = getelementptr inbounds nuw i8, ptr %0, i64 24
  store i32 1, ptr %12, align 8, !tbaa !18
  %13 = getelementptr inbounds nuw i8, ptr %0, i64 28
  store i8 %5, ptr %13, align 4, !tbaa !19
  ret void
}